; ModuleID = '48/1255.c'
source_filename = "48/1255.c"
target datalayout = "e-m:e-p270:32:32-p271:32:32-p272:64:64-i64:64-f80:128-n8:16:32:64-S128"
target triple = "x86_64-pc-linux-gnu"

@.str = private unnamed_addr constant [5 x i8] c"%d%d\00", align 1
@.str.1 = private unnamed_addr constant [4 x i8] c"%d \00", align 1
@.str.2 = private unnamed_addr constant [4 x i8] c"%d\0A\00", align 1

; Function Attrs: noinline nounwind uwtable
define dso_local i32 @main(i32 %0, i8** %1) #0 {
  %3 = alloca i32, align 4
  %4 = alloca i32, align 4
  %5 = alloca i8**, align 8
  %6 = alloca i32, align 4
  %7 = alloca i32, align 4
  %8 = alloca [9 x [9 x i32]], align 16
  %9 = alloca [9 x [9 x i32]], align 16
  %10 = alloca i32, align 4
  %11 = alloca i32, align 4
  %12 = alloca i32, align 4
  %13 = alloca i32, align 4
  %14 = alloca i32, align 4
  store i32 0, i32* %3, align 4
  store i32 %0, i32* %4, align 4
  store i8** %1, i8*** %5, align 8
  %15 = call i32 (i8*, ...) @__isoc99_scanf(i8* getelementptr inbounds ([5 x i8], [5 x i8]* @.str, i64 0, i64 0), i32* %6, i32* %7)
  %16 = getelementptr inbounds [9 x [9 x i32]], [9 x [9 x i32]]* %8, i64 0, i64 0
  %17 = bitcast [9 x i32]* %16 to i8*
  call void @llvm.memset.p0i8.i64(i8* align 16 %17, i8 0, i64 324, i1 false)
  %18 = load i32, i32* %6, align 4
  %19 = getelementptr inbounds [9 x [9 x i32]], [9 x [9 x i32]]* %8, i64 0, i64 4
  %20 = getelementptr inbounds [9 x i32], [9 x i32]* %19, i64 0, i64 4
  store i32 %18, i32* %20, align 16
  store i32 0, i32* %12, align 4
  br label %21

21:                                               ; preds = %98, %2
  %22 = load i32, i32* %12, align 4
  %23 = load i32, i32* %7, align 4
  %24 = icmp slt i32 %22, %23
  br i1 %24, label %25, label %101

25:                                               ; preds = %21
  %26 = getelementptr inbounds [9 x [9 x i32]], [9 x [9 x i32]]* %9, i64 0, i64 0
  %27 = bitcast [9 x i32]* %26 to i8*
  call void @llvm.memset.p0i8.i64(i8* align 16 %27, i8 0, i64 324, i1 false)
  store i32 1, i32* %10, align 4
  br label %28

28:                                               ; preds = %90, %25
  %29 = load i32, i32* %10, align 4
  %30 = icmp slt i32 %29, 8
  br i1 %30, label %31, label %93

31:                                               ; preds = %28
  store i32 1, i32* %11, align 4
  br label %32

32:                                               ; preds = %86, %31
  %33 = load i32, i32* %11, align 4
  %34 = icmp slt i32 %33, 8
  br i1 %34, label %35, label %89

35:                                               ; preds = %32
  %36 = load i32, i32* %10, align 4
  %37 = sext i32 %36 to i64
  %38 = getelementptr inbounds [9 x [9 x i32]], [9 x [9 x i32]]* %8, i64 0, i64 %37
  %39 = load i32, i32* %11, align 4
  %40 = sext i32 %39 to i64
  %41 = getelementptr inbounds [9 x i32], [9 x i32]* %38, i64 0, i64 %40
  %42 = load i32, i32* %41, align 4
  %43 = load i32, i32* %10, align 4
  %44 = sext i32 %43 to i64
  %45 = getelementptr inbounds [9 x [9 x i32]], [9 x [9 x i32]]* %9, i64 0, i64 %44
  %46 = load i32, i32* %11, align 4
  %47 = sext i32 %46 to i64
  %48 = getelementptr inbounds [9 x i32], [9 x i32]* %45, i64 0, i64 %47
  %49 = load i32, i32* %48, align 4
  %50 = add nsw i32 %49, %42
  store i32 %50, i32* %48, align 4
  store i32 -1, i32* %13, align 4
  br label %51

51:                                               ; preds = %82, %35
  %52 = load i32, i32* %13, align 4
  %53 = icmp sle i32 %52, 1
  br i1 %53, label %54, label %85

54:                                               ; preds = %51
  store i32 -1, i32* %14, align 4
  br label %55

55:                                               ; preds = %78, %54
  %56 = load i32, i32* %14, align 4
  %57 = icmp sle i32 %56, 1
  br i1 %57, label %58, label %81

58:                                               ; preds = %55
  %59 = load i32, i32* %10, align 4
  %60 = sext i32 %59 to i64
  %61 = getelementptr inbounds [9 x [9 x i32]], [9 x [9 x i32]]* %8, i64 0, i64 %60
  %62 = load i32, i32* %11, align 4
  %63 = sext i32 %62 to i64
  %64 = getelementptr inbounds [9 x i32], [9 x i32]* %61, i64 0, i64 %63
  %65 = load i32, i32* %64, align 4
  %66 = load i32, i32* %10, align 4
  %67 = load i32, i32* %13, align 4
  %68 = add nsw i32 %66, %67
  %69 = sext i32 %68 to i64
  %70 = getelementptr inbounds [9 x [9 x i32]], [9 x [9 x i32]]* %9, i64 0, i64 %69
  %71 = load i32, i32* %11, align 4
  %72 = load i32, i32* %14, align 4
  %73 = add nsw i32 %71, %72
  %74 = sext i32 %73 to i64
  %75 = getelementptr inbounds [9 x i32], [9 x i32]* %70, i64 0, i64 %74
  %76 = load i32, i32* %75, align 4
  %77 = add nsw i32 %76, %65
  store i32 %77, i32* %75, align 4
  br label %78

78:                                               ; preds = %58
  %79 = load i32, i32* %14, align 4
  %80 = add nsw i32 %79, 1
  store i32 %80, i32* %14, align 4
  br label %55

81:                                               ; preds = %55
  br label %82

82:                                               ; preds = %81
  %83 = load i32, i32* %13, align 4
  %84 = add nsw i32 %83, 1
  store i32 %84, i32* %13, align 4
  br label %51

85:                                               ; preds = %51
  br label %86

86:                                               ; preds = %85
  %87 = load i32, i32* %11, align 4
  %88 = add nsw i32 %87, 1
  store i32 %88, i32* %11, align 4
  br label %32

89:                                               ; preds = %32
  br label %90

90:                                               ; preds = %89
  %91 = load i32, i32* %10, align 4
  %92 = add nsw i32 %91, 1
  store i32 %92, i32* %10, align 4
  br label %28

93:                                               ; preds = %28
  %94 = getelementptr inbounds [9 x [9 x i32]], [9 x [9 x i32]]* %8, i64 0, i64 0
  %95 = bitcast [9 x i32]* %94 to i8*
  %96 = getelementptr inbounds [9 x [9 x i32]], [9 x [9 x i32]]* %9, i64 0, i64 0
  %97 = bitcast [9 x i32]* %96 to i8*
  call void @llvm.memcpy.p0i8.p0i8.i64(i8* align 16 %95, i8* align 16 %97, i64 324, i1 false)
  br label %98

98:                                               ; preds = %93
  %99 = load i32, i32* %12, align 4
  %100 = add nsw i32 %99, 1
  store i32 %100, i32* %12, align 4
  br label %21

101:                                              ; preds = %21
  store i32 0, i32* %10, align 4
  br label %102

102:                                              ; preds = %128, %101
  %103 = load i32, i32* %10, align 4
  %104 = icmp slt i32 %103, 9
  br i1 %104, label %105, label %131

105:                                              ; preds = %102
  store i32 0, i32* %11, align 4
  br label %106

106:                                              ; preds = %118, %105
  %107 = load i32, i32* %11, align 4
  %108 = icmp slt i32 %107, 8
  br i1 %108, label %109, label %121

109:                                              ; preds = %106
  %110 = load i32, i32* %10, align 4
  %111 = sext i32 %110 to i64
  %112 = getelementptr inbounds [9 x [9 x i32]], [9 x [9 x i32]]* %8, i64 0, i64 %111
  %113 = load i32, i32* %11, align 4
  %114 = sext i32 %113 to i64
  %115 = getelementptr inbounds [9 x i32], [9 x i32]* %112, i64 0, i64 %114
  %116 = load i32, i32* %115, align 4
  %117 = call i32 (i8*, ...) @printf(i8* getelementptr inbounds ([4 x i8], [4 x i8]* @.str.1, i64 0, i64 0), i32 %116)
  br label %118

118:                                              ; preds = %109
  %119 = load i32, i32* %11, align 4
  %120 = add nsw i32 %119, 1
  store i32 %120, i32* %11, align 4
  br label %106

121:                                              ; preds = %106
  %122 = load i32, i32* %10, align 4
  %123 = sext i32 %122 to i64
  %124 = getelementptr inbounds [9 x [9 x i32]], [9 x [9 x i32]]* %8, i64 0, i64 %123
  %125 = getelementptr inbounds [9 x i32], [9 x i32]* %124, i64 0, i64 8
  %126 = load i32, i32* %125, align 4
  %127 = call i32 (i8*, ...) @printf(i8* getelementptr inbounds ([4 x i8], [4 x i8]* @.str.2, i64 0, i64 0), i32 %126)
  br label %128

128:                                              ; preds = %121
  %129 = load i32, i32* %10, align 4
  %130 = add nsw i32 %129, 1
  store i32 %130, i32* %10, align 4
  br label %102

131:                                              ; preds = %102
  ret i32 0
}

declare dso_local i32 @__isoc99_scanf(i8*, ...) #1

; Function Attrs: argmemonly nounwind willreturn
declare void @llvm.memset.p0i8.i64(i8* nocapture writeonly, i8, i64, i1 immarg) #2

; Function Attrs: argmemonly nounwind willreturn
declare void @llvm.memcpy.p0i8.p0i8.i64(i8* noalias nocapture writeonly, i8* noalias nocapture readonly, i64, i1 immarg) #2

declare dso_local i32 @printf(i8*, ...) #1


!llvm.module.flags = !{!0}
!llvm.ident = !{!1}

!0 = !{i32 1, !"wchar_size", i32 4}
!1 = !{!"clang version 10.0.0-4ubuntu1 "}
