; ModuleID = 'source-C-CXX/47/1255.c'
source_filename = "source-C-CXX/47/1255.c"
target datalayout = "e-m:e-p270:32:32-p271:32:32-p272:64:64-i64:64-f80:128-n8:16:32:64-S128"
target triple = "x86_64-pc-linux-gnu"

@.str = private unnamed_addr constant [5 x i8] c"%d%d\00", align 1
@.str.1 = private unnamed_addr constant [4 x i8] c"%d \00", align 1
@.str.2 = private unnamed_addr constant [4 x i8] c"%d\0A\00", align 1

; Function Attrs: nofree nounwind sspstrong uwtable
define dso_local i32 @main(i32 %0, i8** nocapture readnone %1) local_unnamed_addr #0 {
  %3 = alloca i32, align 4
  %4 = alloca i32, align 4
  %5 = alloca [9 x [9 x i32]], align 16
  %6 = alloca [9 x [9 x i32]], align 16
  %7 = bitcast i32* %3 to i8*
  call void @llvm.lifetime.start.p0i8(i64 4, i8* nonnull %7) #5
  %8 = bitcast i32* %4 to i8*
  call void @llvm.lifetime.start.p0i8(i64 4, i8* nonnull %8) #5
  %9 = bitcast [9 x [9 x i32]]* %5 to i8*
  call void @llvm.lifetime.start.p0i8(i64 324, i8* nonnull %9) #5
  %10 = bitcast [9 x [9 x i32]]* %6 to i8*
  call void @llvm.lifetime.start.p0i8(i64 324, i8* nonnull %10) #5
  %11 = call i32 (i8*, ...) @__isoc99_scanf(i8* getelementptr inbounds ([5 x i8], [5 x i8]* @.str, i64 0, i64 0), i32* nonnull %3, i32* nonnull %4)
  call void @llvm.memset.p0i8.i64(i8* noundef nonnull align 16 dereferenceable(324) %9, i8 0, i64 324, i1 false)
  %12 = load i32, i32* %3, align 4, !tbaa !5
  %13 = getelementptr inbounds [9 x [9 x i32]], [9 x [9 x i32]]* %5, i64 0, i64 4, i64 4
  store i32 %12, i32* %13, align 16, !tbaa !5
  %14 = load i32, i32* %4, align 4, !tbaa !5
  %15 = icmp sgt i32 %14, 0
  br i1 %15, label %16, label %63

16:                                               ; preds = %2, %60
  %17 = phi i32 [ %61, %60 ], [ 0, %2 ]
  call void @llvm.memset.p0i8.i64(i8* noundef nonnull align 16 dereferenceable(324) %10, i8 0, i64 324, i1 false)
  br label %18

18:                                               ; preds = %16, %58
  %19 = phi i64 [ 1, %16 ], [ %20, %58 ]
  %20 = add nuw nsw i64 %19, 1
  %21 = add nsw i64 %19, -1
  br label %22

22:                                               ; preds = %18, %22
  %23 = phi i64 [ 1, %18 ], [ %36, %22 ]
  %24 = getelementptr inbounds [9 x [9 x i32]], [9 x [9 x i32]]* %5, i64 0, i64 %19, i64 %23
  %25 = load i32, i32* %24, align 4, !tbaa !5
  %26 = getelementptr inbounds [9 x [9 x i32]], [9 x [9 x i32]]* %6, i64 0, i64 %19, i64 %23
  %27 = load i32, i32* %26, align 4, !tbaa !5
  %28 = add nsw i32 %27, %25
  store i32 %28, i32* %26, align 4, !tbaa !5
  %29 = add nsw i64 %23, -1
  %30 = getelementptr inbounds [9 x [9 x i32]], [9 x [9 x i32]]* %6, i64 0, i64 %21, i64 %29
  %31 = load i32, i32* %30, align 4, !tbaa !5
  %32 = add nsw i32 %31, %25
  store i32 %32, i32* %30, align 4, !tbaa !5
  %33 = getelementptr inbounds [9 x [9 x i32]], [9 x [9 x i32]]* %6, i64 0, i64 %21, i64 %23
  %34 = load i32, i32* %33, align 4, !tbaa !5
  %35 = add nsw i32 %34, %25
  store i32 %35, i32* %33, align 4, !tbaa !5
  %36 = add nuw nsw i64 %23, 1
  %37 = getelementptr inbounds [9 x [9 x i32]], [9 x [9 x i32]]* %6, i64 0, i64 %21, i64 %36
  %38 = load i32, i32* %37, align 4, !tbaa !5
  %39 = add nsw i32 %38, %25
  store i32 %39, i32* %37, align 4, !tbaa !5
  %40 = getelementptr inbounds [9 x [9 x i32]], [9 x [9 x i32]]* %6, i64 0, i64 %19, i64 %29
  %41 = load i32, i32* %40, align 4, !tbaa !5
  %42 = add nsw i32 %41, %25
  store i32 %42, i32* %40, align 4, !tbaa !5
  %43 = load i32, i32* %26, align 4, !tbaa !5
  %44 = add nsw i32 %43, %25
  store i32 %44, i32* %26, align 4, !tbaa !5
  %45 = getelementptr inbounds [9 x [9 x i32]], [9 x [9 x i32]]* %6, i64 0, i64 %19, i64 %36
  %46 = load i32, i32* %45, align 4, !tbaa !5
  %47 = add nsw i32 %46, %25
  store i32 %47, i32* %45, align 4, !tbaa !5
  %48 = getelementptr inbounds [9 x [9 x i32]], [9 x [9 x i32]]* %6, i64 0, i64 %20, i64 %29
  %49 = load i32, i32* %48, align 4, !tbaa !5
  %50 = add nsw i32 %49, %25
  store i32 %50, i32* %48, align 4, !tbaa !5
  %51 = getelementptr inbounds [9 x [9 x i32]], [9 x [9 x i32]]* %6, i64 0, i64 %20, i64 %23
  %52 = load i32, i32* %51, align 4, !tbaa !5
  %53 = add nsw i32 %52, %25
  store i32 %53, i32* %51, align 4, !tbaa !5
  %54 = getelementptr inbounds [9 x [9 x i32]], [9 x [9 x i32]]* %6, i64 0, i64 %20, i64 %36
  %55 = load i32, i32* %54, align 4, !tbaa !5
  %56 = add nsw i32 %55, %25
  store i32 %56, i32* %54, align 4, !tbaa !5
  %57 = icmp eq i64 %36, 8
  br i1 %57, label %58, label %22, !llvm.loop !9

58:                                               ; preds = %22
  %59 = icmp eq i64 %20, 8
  br i1 %59, label %60, label %18, !llvm.loop !11

60:                                               ; preds = %58
  call void @llvm.memcpy.p0i8.p0i8.i64(i8* noundef nonnull align 16 dereferenceable(324) %9, i8* noundef nonnull align 16 dereferenceable(324) %10, i64 324, i1 false)
  %61 = add nuw nsw i32 %17, 1
  %62 = icmp eq i32 %61, %14
  br i1 %62, label %63, label %16, !llvm.loop !12

63:                                               ; preds = %60, %2
  br label %64

64:                                               ; preds = %63, %64
  %65 = phi i64 [ %93, %64 ], [ 0, %63 ]
  %66 = getelementptr inbounds [9 x [9 x i32]], [9 x [9 x i32]]* %5, i64 0, i64 %65, i64 0
  %67 = load i32, i32* %66, align 4, !tbaa !5
  %68 = call i32 (i8*, ...) @printf(i8* nonnull dereferenceable(1) getelementptr inbounds ([4 x i8], [4 x i8]* @.str.1, i64 0, i64 0), i32 %67)
  %69 = getelementptr inbounds [9 x [9 x i32]], [9 x [9 x i32]]* %5, i64 0, i64 %65, i64 1
  %70 = load i32, i32* %69, align 4, !tbaa !5
  %71 = call i32 (i8*, ...) @printf(i8* nonnull dereferenceable(1) getelementptr inbounds ([4 x i8], [4 x i8]* @.str.1, i64 0, i64 0), i32 %70)
  %72 = getelementptr inbounds [9 x [9 x i32]], [9 x [9 x i32]]* %5, i64 0, i64 %65, i64 2
  %73 = load i32, i32* %72, align 4, !tbaa !5
  %74 = call i32 (i8*, ...) @printf(i8* nonnull dereferenceable(1) getelementptr inbounds ([4 x i8], [4 x i8]* @.str.1, i64 0, i64 0), i32 %73)
  %75 = getelementptr inbounds [9 x [9 x i32]], [9 x [9 x i32]]* %5, i64 0, i64 %65, i64 3
  %76 = load i32, i32* %75, align 4, !tbaa !5
  %77 = call i32 (i8*, ...) @printf(i8* nonnull dereferenceable(1) getelementptr inbounds ([4 x i8], [4 x i8]* @.str.1, i64 0, i64 0), i32 %76)
  %78 = getelementptr inbounds [9 x [9 x i32]], [9 x [9 x i32]]* %5, i64 0, i64 %65, i64 4
  %79 = load i32, i32* %78, align 4, !tbaa !5
  %80 = call i32 (i8*, ...) @printf(i8* nonnull dereferenceable(1) getelementptr inbounds ([4 x i8], [4 x i8]* @.str.1, i64 0, i64 0), i32 %79)
  %81 = getelementptr inbounds [9 x [9 x i32]], [9 x [9 x i32]]* %5, i64 0, i64 %65, i64 5
  %82 = load i32, i32* %81, align 4, !tbaa !5
  %83 = call i32 (i8*, ...) @printf(i8* nonnull dereferenceable(1) getelementptr inbounds ([4 x i8], [4 x i8]* @.str.1, i64 0, i64 0), i32 %82)
  %84 = getelementptr inbounds [9 x [9 x i32]], [9 x [9 x i32]]* %5, i64 0, i64 %65, i64 6
  %85 = load i32, i32* %84, align 4, !tbaa !5
  %86 = call i32 (i8*, ...) @printf(i8* nonnull dereferenceable(1) getelementptr inbounds ([4 x i8], [4 x i8]* @.str.1, i64 0, i64 0), i32 %85)
  %87 = getelementptr inbounds [9 x [9 x i32]], [9 x [9 x i32]]* %5, i64 0, i64 %65, i64 7
  %88 = load i32, i32* %87, align 4, !tbaa !5
  %89 = call i32 (i8*, ...) @printf(i8* nonnull dereferenceable(1) getelementptr inbounds ([4 x i8], [4 x i8]* @.str.1, i64 0, i64 0), i32 %88)
  %90 = getelementptr inbounds [9 x [9 x i32]], [9 x [9 x i32]]* %5, i64 0, i64 %65, i64 8
  %91 = load i32, i32* %90, align 4, !tbaa !5
  %92 = call i32 (i8*, ...) @printf(i8* nonnull dereferenceable(1) getelementptr inbounds ([4 x i8], [4 x i8]* @.str.2, i64 0, i64 0), i32 %91)
  %93 = add nuw nsw i64 %65, 1
  %94 = icmp eq i64 %93, 9
  br i1 %94, label %95, label %64, !llvm.loop !13

95:                                               ; preds = %64
  call void @llvm.lifetime.end.p0i8(i64 324, i8* nonnull %10) #5
  call void @llvm.lifetime.end.p0i8(i64 324, i8* nonnull %9) #5
  call void @llvm.lifetime.end.p0i8(i64 4, i8* nonnull %8) #5
  call void @llvm.lifetime.end.p0i8(i64 4, i8* nonnull %7) #5
  ret i32 0
}

; Function Attrs: argmemonly mustprogress nofree nosync nounwind willreturn
declare void @llvm.lifetime.start.p0i8(i64 immarg, i8* nocapture) #1

; Function Attrs: nofree nounwind
declare noundef i32 @__isoc99_scanf(i8* nocapture noundef readonly, ...) local_unnamed_addr #2

; Function Attrs: argmemonly mustprogress nofree nounwind willreturn writeonly
declare void @llvm.memset.p0i8.i64(i8* nocapture writeonly, i8, i64, i1 immarg) #3

; Function Attrs: argmemonly mustprogress nofree nounwind willreturn
declare void @llvm.memcpy.p0i8.p0i8.i64(i8* noalias nocapture writeonly, i8* noalias nocapture readonly, i64, i1 immarg) #4

; Function Attrs: nofree nounwind
declare noundef i32 @printf(i8* nocapture noundef readonly, ...) local_unnamed_addr #2

; Function Attrs: argmemonly mustprogress nofree nosync nounwind willreturn
declare void @llvm.lifetime.end.p0i8(i64 immarg, i8* nocapture) #1


!llvm.module.flags = !{!0, !1, !2, !3}
!llvm.ident = !{!4}

!0 = !{i32 1, !"wchar_size", i32 4}
!1 = !{i32 7, !"PIC Level", i32 2}
!2 = !{i32 7, !"PIE Level", i32 2}
!3 = !{i32 7, !"uwtable", i32 1}
!4 = !{!"clang version 13.0.0"}
!5 = !{!6, !6, i64 0}
!6 = !{!"int", !7, i64 0}
!7 = !{!"omnipotent char", !8, i64 0}
!8 = !{!"Simple C/C++ TBAA"}
!9 = distinct !{!9, !10}
!10 = !{!"llvm.loop.mustprogress"}
!11 = distinct !{!11, !10}
!12 = distinct !{!12, !10}
!13 = distinct !{!13, !10}
